target datalayout = "e-m:e-p270:32:32-p271:32:32-p272:64:64-i64:64-i128:128-f80:128-n8:16:32:64-S128"
target triple = "x86_64-pc-linux-gnu"

%struct.quic_tserver_args_st = type { ptr, ptr, ptr, ptr, ptr, ptr, ptr, ptr, i64 }
%struct.quic_tserver_st = type { %struct.quic_tserver_args_st, ptr, ptr, ptr, ptr, ptr, ptr, ptr, i8 }
%struct.OSSL_TIME = type { i64 }
%struct.quic_stream_st = type { %struct.quic_stream_list_node_st, %struct.quic_stream_list_node_st, %struct.quic_stream_list_node_st, ptr, i64, i64, i64, i64, i64, i64, i64, ptr, ptr, %struct.quic_txfc_st, %struct.quic_rxfc_st, i64 }
%struct.quic_stream_list_node_st = type { ptr, ptr }
%struct.quic_txfc_st = type { ptr, i64, i64, i8 }
%struct.quic_rxfc_st = type { i64, i64, i64, i64, i64, i64, i64, %struct.OSSL_TIME, ptr, ptr, ptr, i8, i8, i8, i8 }

; Function Attrs: inlinehint nounwind uwtable
define internal i32 @ossl_quic_stream_recv_is_reset(ptr noundef %0) #5 {
  %2 = alloca ptr, align 8
  store ptr %0, ptr %2, align 8, !tbaa !80
  %3 = load ptr, ptr %2, align 8, !tbaa !80
  %4 = getelementptr inbounds nuw %struct.quic_stream_st, ptr %3, i32 0, i32 15
  %5 = load i64, ptr %4, align 8
  %6 = lshr i64 %5, 16
  %7 = and i64 %6, 255
  %8 = trunc i64 %7 to i32
  %9 = icmp eq i32 %8, 5
  br i1 %9, label %18, label %10

10:                                               ; preds = %1
  %11 = load ptr, ptr %2, align 8, !tbaa !80
  %12 = getelementptr inbounds nuw %struct.quic_stream_st, ptr %11, i32 0, i32 15
  %13 = load i64, ptr %12, align 8
  %14 = lshr i64 %13, 16
  %15 = and i64 %14, 255
  %16 = trunc i64 %15 to i32
  %17 = icmp eq i32 %16, 6
  br label %18

18:                                               ; preds = %10, %1
  %19 = phi i1 [ true, %1 ], [ %17, %10 ]
  %20 = zext i1 %19 to i32
  ret i32 %20
}

; Function Attrs: nounwind uwtable
define i32 @ossl_quic_tserver_stream_has_peer_reset_stream(ptr noundef %0, i64 noundef %1, ptr noundef %2) #0 {
  %4 = alloca i32, align 4
  %5 = alloca ptr, align 8
  %6 = alloca i64, align 8
  %7 = alloca ptr, align 8
  %8 = alloca ptr, align 8
  %9 = alloca i32, align 4
  store ptr %0, ptr %5, align 8, !tbaa !10
  store i64 %1, ptr %6, align 8, !tbaa !26
  store ptr %2, ptr %7, align 8, !tbaa !78
  call void @llvm.lifetime.start.p0(i64 8, ptr %8) #6
  %10 = load ptr, ptr %5, align 8, !tbaa !10
  %11 = getelementptr inbounds nuw %struct.quic_tserver_st, ptr %10, i32 0, i32 4
  %12 = load ptr, ptr %11, align 8, !tbaa !52
  %13 = call ptr @ossl_quic_channel_get_qsm(ptr noundef %12)
  %14 = load i64, ptr %6, align 8, !tbaa !26
  %15 = call ptr @ossl_quic_stream_map_get_by_id(ptr noundef %13, i64 noundef %14)
  store ptr %15, ptr %8, align 8, !tbaa !80
  %16 = load ptr, ptr %8, align 8, !tbaa !80
  %17 = icmp eq ptr %16, null
  br i1 %17, label %18, label %19

18:                                               ; preds = %3
  store i32 0, ptr %4, align 4
  store i32 1, ptr %9, align 4
  br label %34

19:                                               ; preds = %3
  %20 = load ptr, ptr %8, align 8, !tbaa !80
  %21 = call i32 @ossl_quic_stream_recv_is_reset(ptr noundef %20)
  %22 = icmp ne i32 %21, 0
  br i1 %22, label %23, label %31

23:                                               ; preds = %19
  %24 = load ptr, ptr %7, align 8, !tbaa !78
  %25 = icmp ne ptr %24, null
  br i1 %25, label %26, label %31

26:                                               ; preds = %23
  %27 = load ptr, ptr %8, align 8, !tbaa !80
  %28 = getelementptr inbounds nuw %struct.quic_stream_st, ptr %27, i32 0, i32 8
  %29 = load i64, ptr %28, align 8, !tbaa !96
  %30 = load ptr, ptr %7, align 8, !tbaa !78
  store i64 %29, ptr %30, align 8, !tbaa !26
  br label %31

31:                                               ; preds = %26, %23, %19
  %32 = load ptr, ptr %8, align 8, !tbaa !80
  %33 = call i32 @ossl_quic_stream_recv_is_reset(ptr noundef %32)
  store i32 %33, ptr %4, align 4
  store i32 1, ptr %9, align 4
  br label %34

34:                                               ; preds = %31, %18
  call void @llvm.lifetime.end.p0(i64 8, ptr %8) #6
  %35 = load i32, ptr %4, align 4
  ret i32 %35
}