; Function Attrs: nounwind uwtable
define range(i32 0, 2) i32 @ossl_quic_tserver_stream_has_peer_reset_stream(ptr noundef readonly captures(none) %0, i64 noundef %1, ptr noundef writeonly captures(address_is_null) %2) local_unnamed_addr #0 {
  %4 = getelementptr inbounds nuw i8, ptr %0, i64 96
  %5 = load ptr, ptr %4, align 8, !tbaa !46
  %6 = tail call ptr @ossl_quic_channel_get_qsm(ptr noundef %5) #6
  %7 = tail call ptr @ossl_quic_stream_map_get_by_id(ptr noundef %6, i64 noundef %1) #6
  %8 = icmp eq ptr %7, null
  br i1 %8, label %21, label %9

9:                                                ; preds = %3
  %10 = getelementptr i8, ptr %7, i64 256
  %.val = load i64, ptr %10, align 8
  %11 = trunc i64 %.val to i32
  %12 = lshr i32 %11, 16
  %13 = and i32 %12, 255
  %14 = add nsw i32 %13, -5
  %narrow.i = icmp ult i32 %14, 2
  %15 = icmp ne ptr %2, null
  %or.cond = and i1 %15, %narrow.i
  br i1 %or.cond, label %16, label %19

16:                                               ; preds = %9
  %17 = getelementptr inbounds nuw i8, ptr %7, i64 88
  %18 = load i64, ptr %17, align 8, !tbaa !84
  store i64 %18, ptr %2, align 8, !tbaa !20
  %.val11.pre = load i64, ptr %10, align 8
  %.pre = trunc i64 %.val11.pre to i32
  %.pre14 = lshr i32 %.pre, 16
  %.pre16 = and i32 %.pre14, 255
  %.pre18 = add nsw i32 %.pre16, -5
  br label %19

19:                                               ; preds = %16, %9
  %.pre-phi19 = phi i32 [ %.pre18, %16 ], [ %14, %9 ]
  %narrow.i12 = icmp ult i32 %.pre-phi19, 2
  %20 = zext i1 %narrow.i12 to i32
  br label %21

21:                                               ; preds = %3, %19
  %.0 = phi i32 [ %20, %19 ], [ 0, %3 ]
  ret i32 %.0
}